target datalayout = "e-m:e-p270:32:32-p271:32:32-p272:64:64-i64:64-i128:128-f80:128-n8:16:32:64-S128"
target triple = "x86_64-pc-linux-gnu"

%struct._zend_refcounted_h = type { i32, %union.anon.1 }
%union.anon.1 = type { i32 }
%struct._zend_string = type { %struct._zend_refcounted_h, i64, i64, [1 x i8] }

@.str.63 = private unnamed_addr constant [12 x i8] c"queryString\00", align 1
@.str.125 = private unnamed_addr constant [34 x i8] c"Property queryString is read only\00", align 1

; Function Attrs: alwaysinline nounwind uwtable
define internal zeroext i1 @zend_string_equals_cstr(ptr noundef %0, ptr noundef %1, i64 noundef %2) #3 {
  %4 = alloca ptr, align 8
  %5 = alloca ptr, align 8
  %6 = alloca i64, align 8
  store ptr %0, ptr %4, align 8, !tbaa !39
  store ptr %1, ptr %5, align 8, !tbaa !52
  store i64 %2, ptr %6, align 8, !tbaa !92
  %7 = load ptr, ptr %4, align 8, !tbaa !39
  %8 = getelementptr inbounds nuw %struct._zend_string, ptr %7, i32 0, i32 2
  %9 = load i64, ptr %8, align 8, !tbaa !115
  %10 = load i64, ptr %6, align 8, !tbaa !92
  %11 = icmp eq i64 %9, %10
  br i1 %11, label %12, label %21

12:                                               ; preds = %3
  %13 = load ptr, ptr %4, align 8, !tbaa !39
  %14 = getelementptr inbounds nuw %struct._zend_string, ptr %13, i32 0, i32 3
  %15 = getelementptr inbounds [1 x i8], ptr %14, i64 0, i64 0
  %16 = load ptr, ptr %5, align 8, !tbaa !52
  %17 = load i64, ptr %6, align 8, !tbaa !92
  %18 = call i32 @memcmp(ptr noundef %15, ptr noundef %16, i64 noundef %17) #16
  %19 = icmp ne i32 %18, 0
  %20 = xor i1 %19, true
  br label %21

21:                                               ; preds = %12, %3
  %22 = phi i1 [ false, %3 ], [ %20, %12 ]
  ret i1 %22
}

; Function Attrs: nounwind uwtable
define internal void @dbstmt_prop_delete(ptr noundef %0, ptr noundef %1, ptr noundef %2) #0 {
  %4 = alloca ptr, align 8
  %5 = alloca ptr, align 8
  %6 = alloca ptr, align 8
  store ptr %0, ptr %4, align 8, !tbaa !108
  store ptr %1, ptr %5, align 8, !tbaa !39
  store ptr %2, ptr %6, align 8, !tbaa !133
  %7 = load ptr, ptr %5, align 8, !tbaa !39
  %8 = call zeroext i1 @zend_string_equals_cstr(ptr noundef %7, ptr noundef @.str.63, i64 noundef 11)
  br i1 %8, label %9, label %10

9:                                                ; preds = %3
  call void (ptr, ptr, ...) @zend_throw_error(ptr noundef null, ptr noundef @.str.125)
  br label %14

10:                                               ; preds = %3
  %11 = load ptr, ptr %4, align 8, !tbaa !108
  %12 = load ptr, ptr %5, align 8, !tbaa !39
  %13 = load ptr, ptr %6, align 8, !tbaa !133
  call void @zend_std_unset_property(ptr noundef %11, ptr noundef %12, ptr noundef %13)
  br label %14

14:                                               ; preds = %10, %9
  ret void
}