; Function Attrs: nounwind uwtable
define internal void @dbstmt_prop_delete(ptr noundef %0, ptr noundef %1, ptr noundef %2) #0 {
  %4 = getelementptr inbounds nuw i8, ptr %1, i64 16
  %5 = load i64, ptr %4, align 8, !tbaa !97
  %6 = icmp eq i64 %5, 11
  br i1 %6, label %zend_string_equals_cstr.exit, label %zend_string_equals_cstr.exit.thread

zend_string_equals_cstr.exit:                     ; preds = %3
  %7 = getelementptr inbounds nuw i8, ptr %1, i64 24
  %bcmp.i = tail call i32 @bcmp(ptr noundef nonnull dereferenceable(11) %7, ptr noundef nonnull dereferenceable(11) @.str.63, i64 11)
  %.not.i = icmp eq i32 %bcmp.i, 0
  br i1 %.not.i, label %8, label %zend_string_equals_cstr.exit.thread

8:                                                ; preds = %zend_string_equals_cstr.exit
  tail call void (ptr, ptr, ...) @zend_throw_error(ptr noundef null, ptr noundef nonnull @.str.125) #17
  br label %9

zend_string_equals_cstr.exit.thread:              ; preds = %3, %zend_string_equals_cstr.exit
  tail call void @zend_std_unset_property(ptr noundef %0, ptr noundef nonnull %1, ptr noundef %2) #17
  br label %9

9:                                                ; preds = %zend_string_equals_cstr.exit.thread, %8
  ret void
}